target datalayout = "e-m:e-p270:32:32-p271:32:32-p272:64:64-i64:64-i128:128-f80:128-n8:16:32:64-S128"
target triple = "x86_64-pc-linux-gnu"

%"class.gmx::OptionsModifyingVisitor" = type { ptr }
%"class.gmx::(anonymous namespace)::TimeOptionScaler.6" = type { %"class.gmx::OptionsModifyingTypeVisitor.7", double }
%"class.gmx::OptionsModifyingTypeVisitor.7" = type { %"class.gmx::OptionsModifyingVisitor" }

; Function Attrs: mustprogress uwtable
define internal void @_ZN3gmx12_GLOBAL__N_116TimeOptionScalerINS_15FloatOptionInfoEE15visitOptionTypeEPS2_(ptr noundef nonnull align 8 dereferenceable(16) %0, ptr noundef %1) unnamed_addr #1 align 2 {
  %3 = alloca ptr, align 8
  %4 = alloca ptr, align 8
  store ptr %0, ptr %3, align 8, !tbaa !89
  store ptr %1, ptr %4, align 8, !tbaa !325
  %5 = load ptr, ptr %3, align 8
  %6 = load ptr, ptr %4, align 8, !tbaa !325
  %7 = call noundef zeroext i1 @_ZNK3gmx15FloatOptionInfo6isTimeEv(ptr noundef nonnull align 8 dereferenceable(16) %6)
  br i1 %7, label %8, label %12

8:                                                ; preds = %2
  %9 = load ptr, ptr %4, align 8, !tbaa !325
  %10 = getelementptr inbounds nuw %"class.gmx::(anonymous namespace)::TimeOptionScaler.6", ptr %5, i32 0, i32 1
  %11 = load double, ptr %10, align 8, !tbaa !91
  call void @_ZN3gmx15FloatOptionInfo14setScaleFactorEd(ptr noundef nonnull align 8 dereferenceable(16) %9, double noundef %11)
  br label %12

12:                                               ; preds = %8, %2
  ret void
}